target datalayout = "e-m:e-p270:32:32-p271:32:32-p272:64:64-i64:64-i128:128-f80:128-n8:16:32:64-S128"
target triple = "x86_64-pc-linux-gnu"

%struct.pmix_list_t = type { %struct.pmix_object_t, %struct.pmix_list_item_t, i64 }
%struct.pmix_object_t = type { %union.pthread_mutex_t, ptr, i32, %struct.pmix_tma }
%union.pthread_mutex_t = type { %struct.__pthread_mutex_s }
%struct.__pthread_mutex_s = type { i32, i32, i32, i32, i32, i16, i16, %struct.__pthread_internal_list }
%struct.__pthread_internal_list = type { ptr, ptr }
%struct.pmix_tma = type { ptr, ptr, ptr, ptr, ptr, ptr, ptr, ptr }
%struct.pmix_list_item_t = type { %struct.pmix_object_t, ptr, ptr, i32 }
%struct.pmix_proc = type { [256 x i8], i32 }
%struct.prte_rmaps_base_t = type { %struct.pmix_list_t, i16, i16, ptr, i8, i8, ptr, ptr, ptr, ptr, i8 }
%struct.prte_rmaps_options_t = type { i16, i8, i32, i32, ptr, ptr, i8, i8, i8, i8, i8, i16, i8, i8, i16, i32, i32, i32, i32, i16, i8, i32, i32, i32, i16, i8, i32, i16, ptr, ptr }
%struct.prte_job_t = type { %struct.pmix_list_item_t, i32, ptr, ptr, [256 x i8], ptr, i32, i32, ptr, ptr, i32, i32, i32, i32, ptr, ptr, ptr, i32, i32, i32, i32, i32, i32, i32, %struct.pmix_proc, i32, i16, %struct.pmix_list_t, %struct.pmix_data_buffer, %struct.pmix_list_t, [256 x i8], i32, ptr, %struct.pmix_cli_result_t }
%struct.pmix_data_buffer = type { ptr, ptr, ptr, i64, i64 }
%struct.pmix_cli_result_t = type { %struct.pmix_object_t, %struct.pmix_list_t, ptr }
%struct.pmix_pointer_array_t = type { %struct.pmix_object_t, i32, i32, i32, i32, i32, ptr, ptr }
%struct.prte_node_t = type { %struct.pmix_list_item_t, i32, ptr, ptr, ptr, ptr, ptr, ptr, i16, ptr, i16, i8, i32, i32, i32, i32, ptr, i8, %struct.pmix_list_t }
%struct.prte_topology_t = type { %struct.pmix_object_t, i32, ptr, ptr }
%struct.prte_proc_t = type { %struct.pmix_list_item_t, %struct.pmix_proc, i32, i32, i16, i16, i32, i16, i32, i32, i32, i32, ptr, ptr, ptr, ptr, i16, %struct.pmix_list_t }

@prte_rmaps_base = external global %struct.prte_rmaps_base_t, align 8
@.str.49 = private unnamed_addr constant [27 x i8] c"Proc %s Node %s is UNBOUND\00", align 1
@.str.50 = private unnamed_addr constant [28 x i8] c"Proc %s Node %s bound to %s\00", align 1
@.str.51 = private unnamed_addr constant [24 x i8] c"Error: job has no procs\00", align 1
@.str.52 = private unnamed_addr constant [1 x i8] zeroinitializer, align 1

; Function Attrs: inlinehint nounwind uwtable
define internal ptr @pmix_pointer_array_get_item(ptr noundef %0, i32 noundef %1) #2 {
  %3 = alloca ptr, align 8
  %4 = alloca ptr, align 8
  %5 = alloca i32, align 4
  %6 = alloca ptr, align 8
  %7 = alloca i32, align 4
  store ptr %0, ptr %4, align 8, !tbaa !139
  store i32 %1, ptr %5, align 4, !tbaa !3
  call void @llvm.lifetime.start.p0(i64 8, ptr %6) #13
  %8 = load i32, ptr %5, align 4, !tbaa !3
  %9 = icmp sgt i32 0, %8
  br i1 %9, label %16, label %10

10:                                               ; preds = %2
  %11 = load ptr, ptr %4, align 8, !tbaa !139
  %12 = getelementptr inbounds nuw %struct.pmix_pointer_array_t, ptr %11, i32 0, i32 3
  %13 = load i32, ptr %12, align 8, !tbaa !88
  %14 = load i32, ptr %5, align 4, !tbaa !3
  %15 = icmp sle i32 %13, %14
  br label %16

16:                                               ; preds = %10, %2
  %17 = phi i1 [ true, %2 ], [ %15, %10 ]
  %18 = xor i1 %17, true
  %19 = xor i1 %18, true
  %20 = zext i1 %19 to i32
  %21 = sext i32 %20 to i64
  %22 = call i64 @llvm.expect.i64(i64 %21, i64 0)
  %23 = icmp ne i64 %22, 0
  br i1 %23, label %24, label %25

24:                                               ; preds = %16
  store ptr null, ptr %3, align 8
  store i32 1, ptr %7, align 4
  br label %34

25:                                               ; preds = %16
  %26 = load ptr, ptr %4, align 8, !tbaa !139
  %27 = getelementptr inbounds nuw %struct.pmix_pointer_array_t, ptr %26, i32 0, i32 7
  %28 = load ptr, ptr %27, align 8, !tbaa !170
  %29 = load i32, ptr %5, align 4, !tbaa !3
  %30 = sext i32 %29 to i64
  %31 = getelementptr inbounds ptr, ptr %28, i64 %30
  %32 = load ptr, ptr %31, align 8, !tbaa !9
  store ptr %32, ptr %6, align 8, !tbaa !9
  %33 = load ptr, ptr %6, align 8, !tbaa !9
  store ptr %33, ptr %3, align 8
  store i32 1, ptr %7, align 4
  br label %34

34:                                               ; preds = %25, %24
  call void @llvm.lifetime.end.p0(i64 8, ptr %6) #13
  %35 = load ptr, ptr %3, align 8
  ret ptr %35
}

; Function Attrs: nounwind uwtable
define void @prte_rmaps_base_report_bindings(ptr noundef %0, ptr noundef %1) #0 {
  %3 = alloca ptr, align 8
  %4 = alloca ptr, align 8
  %5 = alloca i32, align 4
  %6 = alloca ptr, align 8
  %7 = alloca ptr, align 8
  %8 = alloca ptr, align 8
  %9 = alloca ptr, align 8
  %10 = alloca %struct.pmix_proc, align 4
  store ptr %0, ptr %3, align 8, !tbaa !9
  store ptr %1, ptr %4, align 8, !tbaa !9
  call void @llvm.lifetime.start.p0(i64 4, ptr %5) #13
  call void @llvm.lifetime.start.p0(i64 8, ptr %6) #13
  call void @llvm.lifetime.start.p0(i64 8, ptr %7) #13
  store ptr null, ptr %7, align 8, !tbaa !83
  call void @llvm.lifetime.start.p0(i64 8, ptr %8) #13
  call void @llvm.lifetime.start.p0(i64 8, ptr %9) #13
  call void @llvm.lifetime.start.p0(i64 260, ptr %10) #13
  store i32 0, ptr %5, align 4, !tbaa !3
  br label %11

11:                                               ; preds = %77, %2
  %12 = load i32, ptr %5, align 4, !tbaa !3
  %13 = load ptr, ptr %3, align 8, !tbaa !9
  %14 = getelementptr inbounds nuw %struct.prte_job_t, ptr %13, i32 0, i32 14
  %15 = load ptr, ptr %14, align 8, !tbaa !206
  %16 = getelementptr inbounds nuw %struct.pmix_pointer_array_t, ptr %15, i32 0, i32 3
  %17 = load i32, ptr %16, align 8, !tbaa !88
  %18 = icmp slt i32 %12, %17
  br i1 %18, label %19, label %80

19:                                               ; preds = %11
  %20 = load ptr, ptr %3, align 8, !tbaa !9
  %21 = getelementptr inbounds nuw %struct.prte_job_t, ptr %20, i32 0, i32 14
  %22 = load ptr, ptr %21, align 8, !tbaa !206
  %23 = load i32, ptr %5, align 4, !tbaa !3
  %24 = call ptr @pmix_pointer_array_get_item(ptr noundef %22, i32 noundef %23)
  store ptr %24, ptr %6, align 8, !tbaa !186
  %25 = load ptr, ptr %6, align 8, !tbaa !186
  %26 = icmp eq ptr null, %25
  br i1 %26, label %27, label %28

27:                                               ; preds = %19
  br label %77

28:                                               ; preds = %19
  %29 = load ptr, ptr %6, align 8, !tbaa !186
  %30 = getelementptr inbounds nuw %struct.prte_proc_t, ptr %29, i32 0, i32 14
  %31 = load ptr, ptr %30, align 8, !tbaa !207
  %32 = icmp eq ptr null, %31
  br i1 %32, label %33, label %43

33:                                               ; preds = %28
  %34 = load ptr, ptr %6, align 8, !tbaa !186
  %35 = getelementptr inbounds nuw %struct.prte_proc_t, ptr %34, i32 0, i32 1
  %36 = call ptr @prte_util_print_name_args(ptr noundef %35)
  %37 = load ptr, ptr %6, align 8, !tbaa !186
  %38 = getelementptr inbounds nuw %struct.prte_proc_t, ptr %37, i32 0, i32 12
  %39 = load ptr, ptr %38, align 8, !tbaa !187
  %40 = getelementptr inbounds nuw %struct.prte_node_t, ptr %39, i32 0, i32 2
  %41 = load ptr, ptr %40, align 8, !tbaa !208
  %42 = call i32 (ptr, ptr, ...) @pmix_asprintf(ptr noundef %8, ptr noundef @.str.49, ptr noundef %36, ptr noundef %41)
  br label %73

43:                                               ; preds = %28
  %44 = load ptr, ptr getelementptr inbounds nuw (%struct.prte_rmaps_base_t, ptr @prte_rmaps_base, i32 0, i32 7), align 8, !tbaa !209
  %45 = load ptr, ptr %6, align 8, !tbaa !186
  %46 = getelementptr inbounds nuw %struct.prte_proc_t, ptr %45, i32 0, i32 14
  %47 = load ptr, ptr %46, align 8, !tbaa !207
  %48 = call i32 @hwloc_bitmap_list_sscanf(ptr noundef %44, ptr noundef %47)
  %49 = load ptr, ptr getelementptr inbounds nuw (%struct.prte_rmaps_base_t, ptr @prte_rmaps_base, i32 0, i32 7), align 8, !tbaa !209
  %50 = load ptr, ptr %4, align 8, !tbaa !9
  %51 = getelementptr inbounds nuw %struct.prte_rmaps_options_t, ptr %50, i32 0, i32 1
  %52 = load i8, ptr %51, align 2, !tbaa !78, !range !65, !noundef !66
  %53 = trunc i8 %52 to i1
  %54 = load ptr, ptr %6, align 8, !tbaa !186
  %55 = getelementptr inbounds nuw %struct.prte_proc_t, ptr %54, i32 0, i32 12
  %56 = load ptr, ptr %55, align 8, !tbaa !187
  %57 = getelementptr inbounds nuw %struct.prte_node_t, ptr %56, i32 0, i32 16
  %58 = load ptr, ptr %57, align 8, !tbaa !106
  %59 = getelementptr inbounds nuw %struct.prte_topology_t, ptr %58, i32 0, i32 2
  %60 = load ptr, ptr %59, align 8, !tbaa !109
  %61 = call ptr @prte_hwloc_base_cset2str(ptr noundef %49, i1 noundef zeroext %53, ptr noundef %60)
  store ptr %61, ptr %9, align 8, !tbaa !75
  %62 = load ptr, ptr %6, align 8, !tbaa !186
  %63 = getelementptr inbounds nuw %struct.prte_proc_t, ptr %62, i32 0, i32 1
  %64 = call ptr @prte_util_print_name_args(ptr noundef %63)
  %65 = load ptr, ptr %6, align 8, !tbaa !186
  %66 = getelementptr inbounds nuw %struct.prte_proc_t, ptr %65, i32 0, i32 12
  %67 = load ptr, ptr %66, align 8, !tbaa !187
  %68 = getelementptr inbounds nuw %struct.prte_node_t, ptr %67, i32 0, i32 2
  %69 = load ptr, ptr %68, align 8, !tbaa !208
  %70 = load ptr, ptr %9, align 8, !tbaa !75
  %71 = call i32 (ptr, ptr, ...) @pmix_asprintf(ptr noundef %8, ptr noundef @.str.50, ptr noundef %64, ptr noundef %69, ptr noundef %70)
  %72 = load ptr, ptr %9, align 8, !tbaa !75
  call void @free(ptr noundef %72) #13
  br label %73

73:                                               ; preds = %43, %33
  %74 = load ptr, ptr %8, align 8, !tbaa !75
  %75 = call i32 @PMIx_Argv_append_nosize(ptr noundef %7, ptr noundef %74)
  %76 = load ptr, ptr %8, align 8, !tbaa !75
  call void @free(ptr noundef %76) #13
  br label %77

77:                                               ; preds = %73, %27
  %78 = load i32, ptr %5, align 4, !tbaa !3
  %79 = add nsw i32 %78, 1
  store i32 %79, ptr %5, align 4, !tbaa !3
  br label %11, !llvm.loop !210

80:                                               ; preds = %11
  %81 = load ptr, ptr %7, align 8, !tbaa !83
  %82 = icmp eq ptr null, %81
  br i1 %82, label %83, label %85

83:                                               ; preds = %80
  %84 = call noalias ptr @strdup(ptr noundef @.str.51) #13
  store ptr %84, ptr %8, align 8, !tbaa !75
  br label %89

85:                                               ; preds = %80
  %86 = call i32 @PMIx_Argv_append_nosize(ptr noundef %7, ptr noundef @.str.52)
  %87 = load ptr, ptr %7, align 8, !tbaa !83
  %88 = call ptr @PMIx_Argv_join(ptr noundef %87, i32 noundef 10)
  store ptr %88, ptr %8, align 8, !tbaa !75
  br label %89

89:                                               ; preds = %85, %83
  %90 = load ptr, ptr %3, align 8, !tbaa !9
  %91 = getelementptr inbounds nuw %struct.prte_job_t, ptr %90, i32 0, i32 4
  %92 = getelementptr inbounds [256 x i8], ptr %91, i64 0, i64 0
  call void @PMIx_Load_procid(ptr noundef %10, ptr noundef %92, i32 noundef -2)
  %93 = load ptr, ptr %8, align 8, !tbaa !75
  call void @prte_iof_base_output(ptr noundef %10, i16 noundef zeroext 2, ptr noundef %93)
  call void @llvm.lifetime.end.p0(i64 260, ptr %10) #13
  call void @llvm.lifetime.end.p0(i64 8, ptr %9) #13
  call void @llvm.lifetime.end.p0(i64 8, ptr %8) #13
  call void @llvm.lifetime.end.p0(i64 8, ptr %7) #13
  call void @llvm.lifetime.end.p0(i64 8, ptr %6) #13
  call void @llvm.lifetime.end.p0(i64 4, ptr %5) #13
  ret void
}