; Function Attrs: nounwind uwtable
define void @prte_rmaps_base_report_bindings(ptr noundef %0, ptr noundef readonly captures(none) %1) local_unnamed_addr #0 {
  %3 = alloca ptr, align 8
  %4 = alloca ptr, align 8
  %5 = alloca %struct.pmix_proc, align 4
  call void @llvm.lifetime.start.p0(i64 8, ptr nonnull %3) #15
  store ptr null, ptr %3, align 8, !tbaa !181
  call void @llvm.lifetime.start.p0(i64 8, ptr nonnull %4) #15
  call void @llvm.lifetime.start.p0(i64 260, ptr nonnull %5) #15
  %6 = getelementptr inbounds nuw i8, ptr %0, i64 472
  %7 = load ptr, ptr %6, align 8, !tbaa !182
  %8 = getelementptr inbounds nuw i8, ptr %7, i64 128
  %9 = load i32, ptr %8, align 8, !tbaa !89
  %10 = icmp sgt i32 %9, 0
  br i1 %10, label %pmix_pointer_array_get_item.exit.lr.ph, label %._crit_edge.thread

pmix_pointer_array_get_item.exit.lr.ph:           ; preds = %2
  %11 = getelementptr inbounds nuw i8, ptr %1, i64 2
  br label %pmix_pointer_array_get_item.exit

pmix_pointer_array_get_item.exit:                 ; preds = %pmix_pointer_array_get_item.exit.lr.ph, %53
  %12 = phi ptr [ %7, %pmix_pointer_array_get_item.exit.lr.ph ], [ %54, %53 ]
  %indvars.iv = phi i64 [ 0, %pmix_pointer_array_get_item.exit.lr.ph ], [ %indvars.iv.next, %53 ]
  %13 = getelementptr inbounds nuw i8, ptr %12, i64 152
  %14 = load ptr, ptr %13, align 8, !tbaa !92
  %15 = getelementptr inbounds nuw ptr, ptr %14, i64 %indvars.iv
  %16 = load ptr, ptr %15, align 8, !tbaa !56
  %17 = icmp eq ptr %16, null
  br i1 %17, label %53, label %18

18:                                               ; preds = %pmix_pointer_array_get_item.exit
  %19 = getelementptr inbounds nuw i8, ptr %16, i64 456
  %20 = load ptr, ptr %19, align 8, !tbaa !183
  %21 = icmp eq ptr %20, null
  br i1 %21, label %22, label %30

22:                                               ; preds = %18
  %23 = getelementptr inbounds nuw i8, ptr %16, i64 144
  %24 = call ptr @prte_util_print_name_args(ptr noundef nonnull %23) #15
  %25 = getelementptr inbounds nuw i8, ptr %16, i64 440
  %26 = load ptr, ptr %25, align 8, !tbaa !162
  %27 = getelementptr inbounds nuw i8, ptr %26, i64 152
  %28 = load ptr, ptr %27, align 8, !tbaa !184
  %29 = call i32 (ptr, ptr, ...) @pmix_asprintf(ptr noundef nonnull %4, ptr noundef nonnull @.str.49, ptr noundef %24, ptr noundef %28) #15
  br label %49

30:                                               ; preds = %18
  %31 = load ptr, ptr getelementptr inbounds nuw (i8, ptr @prte_rmaps_base, i64 304), align 8, !tbaa !185
  %32 = call i32 @hwloc_bitmap_list_sscanf(ptr noundef %31, ptr noundef nonnull %20) #15
  %33 = load ptr, ptr getelementptr inbounds nuw (i8, ptr @prte_rmaps_base, i64 304), align 8, !tbaa !185
  %34 = load i8, ptr %11, align 2, !tbaa !80, !range !74, !noundef !78
  %35 = trunc nuw i8 %34 to i1
  %36 = getelementptr inbounds nuw i8, ptr %16, i64 440
  %37 = load ptr, ptr %36, align 8, !tbaa !162
  %38 = getelementptr inbounds nuw i8, ptr %37, i64 240
  %39 = load ptr, ptr %38, align 8, !tbaa !105
  %40 = getelementptr inbounds nuw i8, ptr %39, i64 128
  %41 = load ptr, ptr %40, align 8, !tbaa !108
  %42 = call ptr @prte_hwloc_base_cset2str(ptr noundef %33, i1 noundef zeroext %35, ptr noundef %41) #15
  %43 = getelementptr inbounds nuw i8, ptr %16, i64 144
  %44 = call ptr @prte_util_print_name_args(ptr noundef nonnull %43) #15
  %45 = load ptr, ptr %36, align 8, !tbaa !162
  %46 = getelementptr inbounds nuw i8, ptr %45, i64 152
  %47 = load ptr, ptr %46, align 8, !tbaa !184
  %48 = call i32 (ptr, ptr, ...) @pmix_asprintf(ptr noundef nonnull %4, ptr noundef nonnull @.str.50, ptr noundef %44, ptr noundef %47, ptr noundef %42) #15
  call void @free(ptr noundef %42) #15
  br label %49

49:                                               ; preds = %30, %22
  %50 = load ptr, ptr %4, align 8, !tbaa !75
  %51 = call i32 @PMIx_Argv_append_nosize(ptr noundef nonnull %3, ptr noundef %50) #15
  %52 = load ptr, ptr %4, align 8, !tbaa !75
  call void @free(ptr noundef %52) #15
  %.pre = load ptr, ptr %6, align 8, !tbaa !182
  br label %53

53:                                               ; preds = %pmix_pointer_array_get_item.exit, %49
  %54 = phi ptr [ %12, %pmix_pointer_array_get_item.exit ], [ %.pre, %49 ]
  %indvars.iv.next = add nuw nsw i64 %indvars.iv, 1
  %55 = getelementptr inbounds nuw i8, ptr %54, i64 128
  %56 = load i32, ptr %55, align 8, !tbaa !89
  %57 = sext i32 %56 to i64
  %58 = icmp slt i64 %indvars.iv.next, %57
  br i1 %58, label %pmix_pointer_array_get_item.exit, label %._crit_edge, !llvm.loop !186

._crit_edge:                                      ; preds = %53
  %.pre20 = load ptr, ptr %3, align 8, !tbaa !181
  %59 = icmp eq ptr %.pre20, null
  br i1 %59, label %._crit_edge.thread, label %61

._crit_edge.thread:                               ; preds = %2, %._crit_edge
  %60 = call noalias dereferenceable_or_null(24) ptr @strdup(ptr noundef nonnull @.str.51) #15
  br label %65

61:                                               ; preds = %._crit_edge
  %62 = call i32 @PMIx_Argv_append_nosize(ptr noundef nonnull %3, ptr noundef nonnull @.str.52) #15
  %63 = load ptr, ptr %3, align 8, !tbaa !181
  %64 = call ptr @PMIx_Argv_join(ptr noundef %63, i32 noundef 10) #15
  br label %65

65:                                               ; preds = %61, %._crit_edge.thread
  %storemerge = phi ptr [ %64, %61 ], [ %60, %._crit_edge.thread ]
  store ptr %storemerge, ptr %4, align 8, !tbaa !75
  %66 = getelementptr inbounds nuw i8, ptr %0, i64 168
  call void @PMIx_Load_procid(ptr noundef nonnull %5, ptr noundef nonnull %66, i32 noundef -2) #15
  %67 = load ptr, ptr %4, align 8, !tbaa !75
  call void @prte_iof_base_output(ptr noundef nonnull %5, i16 noundef zeroext 2, ptr noundef %67) #15
  call void @llvm.lifetime.end.p0(i64 260, ptr nonnull %5) #15
  call void @llvm.lifetime.end.p0(i64 8, ptr nonnull %4) #15
  call void @llvm.lifetime.end.p0(i64 8, ptr nonnull %3) #15
  ret void
}